target datalayout = "e-m:e-p270:32:32-p271:32:32-p272:64:64-i64:64-i128:128-f80:128-n8:16:32:64-S128"
target triple = "x86_64-pc-linux-gnu"

%struct.PHP_HAVAL_CTX = type { [8 x i32], [2 x i32], [128 x i8], i8, i16, ptr }

; Function Attrs: nounwind uwtable
define dso_local void @PHP_HAVALUpdate(ptr noundef %0, ptr noundef %1, i64 noundef %2) #0 {
  %4 = alloca ptr, align 8
  %5 = alloca ptr, align 8
  %6 = alloca i64, align 8
  %7 = alloca i32, align 4
  %8 = alloca i32, align 4
  %9 = alloca i64, align 8
  store ptr %0, ptr %4, align 8, !tbaa !4
  store ptr %1, ptr %5, align 8, !tbaa !17
  store i64 %2, ptr %6, align 8, !tbaa !19
  call void @llvm.lifetime.start.p0(i64 4, ptr %7) #5
  call void @llvm.lifetime.start.p0(i64 4, ptr %8) #5
  call void @llvm.lifetime.start.p0(i64 8, ptr %9) #5
  %10 = load ptr, ptr %4, align 8, !tbaa !4
  %11 = getelementptr inbounds nuw %struct.PHP_HAVAL_CTX, ptr %10, i32 0, i32 1
  %12 = getelementptr inbounds [2 x i32], ptr %11, i64 0, i64 0
  %13 = load i32, ptr %12, align 8, !tbaa !10
  %14 = lshr i32 %13, 3
  %15 = and i32 %14, 127
  store i32 %15, ptr %7, align 4, !tbaa !10
  %16 = load i64, ptr %6, align 8, !tbaa !19
  %17 = trunc i64 %16 to i32
  %18 = shl i32 %17, 3
  %19 = load ptr, ptr %4, align 8, !tbaa !4
  %20 = getelementptr inbounds nuw %struct.PHP_HAVAL_CTX, ptr %19, i32 0, i32 1
  %21 = getelementptr inbounds [2 x i32], ptr %20, i64 0, i64 0
  %22 = load i32, ptr %21, align 8, !tbaa !10
  %23 = add i32 %22, %18
  store i32 %23, ptr %21, align 8, !tbaa !10
  %24 = load i64, ptr %6, align 8, !tbaa !19
  %25 = trunc i64 %24 to i32
  %26 = shl i32 %25, 3
  %27 = icmp ult i32 %23, %26
  br i1 %27, label %28, label %34

28:                                               ; preds = %3
  %29 = load ptr, ptr %4, align 8, !tbaa !4
  %30 = getelementptr inbounds nuw %struct.PHP_HAVAL_CTX, ptr %29, i32 0, i32 1
  %31 = getelementptr inbounds [2 x i32], ptr %30, i64 0, i64 1
  %32 = load i32, ptr %31, align 4, !tbaa !10
  %33 = add i32 %32, 1
  store i32 %33, ptr %31, align 4, !tbaa !10
  br label %34

34:                                               ; preds = %28, %3
  %35 = load i64, ptr %6, align 8, !tbaa !19
  %36 = lshr i64 %35, 29
  %37 = trunc i64 %36 to i32
  %38 = load ptr, ptr %4, align 8, !tbaa !4
  %39 = getelementptr inbounds nuw %struct.PHP_HAVAL_CTX, ptr %38, i32 0, i32 1
  %40 = getelementptr inbounds [2 x i32], ptr %39, i64 0, i64 1
  %41 = load i32, ptr %40, align 4, !tbaa !10
  %42 = add i32 %41, %37
  store i32 %42, ptr %40, align 4, !tbaa !10
  %43 = load i32, ptr %7, align 4, !tbaa !10
  %44 = sub i32 128, %43
  store i32 %44, ptr %8, align 4, !tbaa !10
  %45 = load i64, ptr %6, align 8, !tbaa !19
  %46 = load i32, ptr %8, align 4, !tbaa !10
  %47 = zext i32 %46 to i64
  %48 = icmp uge i64 %45, %47
  br i1 %48, label %49, label %88

49:                                               ; preds = %34
  %50 = load ptr, ptr %4, align 8, !tbaa !4
  %51 = getelementptr inbounds nuw %struct.PHP_HAVAL_CTX, ptr %50, i32 0, i32 2
  %52 = load i32, ptr %7, align 4, !tbaa !10
  %53 = zext i32 %52 to i64
  %54 = getelementptr inbounds nuw [128 x i8], ptr %51, i64 0, i64 %53
  %55 = load ptr, ptr %5, align 8, !tbaa !17
  %56 = load i32, ptr %8, align 4, !tbaa !10
  %57 = zext i32 %56 to i64
  call void @llvm.memcpy.p0.p0.i64(ptr align 1 %54, ptr align 1 %55, i64 %57, i1 false)
  %58 = load ptr, ptr %4, align 8, !tbaa !4
  %59 = getelementptr inbounds nuw %struct.PHP_HAVAL_CTX, ptr %58, i32 0, i32 5
  %60 = load ptr, ptr %59, align 8, !tbaa !16
  %61 = load ptr, ptr %4, align 8, !tbaa !4
  %62 = getelementptr inbounds nuw %struct.PHP_HAVAL_CTX, ptr %61, i32 0, i32 0
  %63 = getelementptr inbounds [8 x i32], ptr %62, i64 0, i64 0
  %64 = load ptr, ptr %4, align 8, !tbaa !4
  %65 = getelementptr inbounds nuw %struct.PHP_HAVAL_CTX, ptr %64, i32 0, i32 2
  %66 = getelementptr inbounds [128 x i8], ptr %65, i64 0, i64 0
  call void %60(ptr noundef %63, ptr noundef %66)
  %67 = load i32, ptr %8, align 4, !tbaa !10
  %68 = zext i32 %67 to i64
  store i64 %68, ptr %9, align 8, !tbaa !19
  br label %69

69:                                               ; preds = %84, %49
  %70 = load i64, ptr %9, align 8, !tbaa !19
  %71 = add i64 %70, 127
  %72 = load i64, ptr %6, align 8, !tbaa !19
  %73 = icmp ult i64 %71, %72
  br i1 %73, label %74, label %87

74:                                               ; preds = %69
  %75 = load ptr, ptr %4, align 8, !tbaa !4
  %76 = getelementptr inbounds nuw %struct.PHP_HAVAL_CTX, ptr %75, i32 0, i32 5
  %77 = load ptr, ptr %76, align 8, !tbaa !16
  %78 = load ptr, ptr %4, align 8, !tbaa !4
  %79 = getelementptr inbounds nuw %struct.PHP_HAVAL_CTX, ptr %78, i32 0, i32 0
  %80 = getelementptr inbounds [8 x i32], ptr %79, i64 0, i64 0
  %81 = load ptr, ptr %5, align 8, !tbaa !17
  %82 = load i64, ptr %9, align 8, !tbaa !19
  %83 = getelementptr inbounds nuw i8, ptr %81, i64 %82
  call void %77(ptr noundef %80, ptr noundef %83)
  br label %84

84:                                               ; preds = %74
  %85 = load i64, ptr %9, align 8, !tbaa !19
  %86 = add i64 %85, 128
  store i64 %86, ptr %9, align 8, !tbaa !19
  br label %69

87:                                               ; preds = %69
  store i32 0, ptr %7, align 4, !tbaa !10
  br label %89

88:                                               ; preds = %34
  store i64 0, ptr %9, align 8, !tbaa !19
  br label %89

89:                                               ; preds = %88, %87
  %90 = load ptr, ptr %4, align 8, !tbaa !4
  %91 = getelementptr inbounds nuw %struct.PHP_HAVAL_CTX, ptr %90, i32 0, i32 2
  %92 = load i32, ptr %7, align 4, !tbaa !10
  %93 = zext i32 %92 to i64
  %94 = getelementptr inbounds nuw [128 x i8], ptr %91, i64 0, i64 %93
  %95 = load ptr, ptr %5, align 8, !tbaa !17
  %96 = load i64, ptr %9, align 8, !tbaa !19
  %97 = getelementptr inbounds nuw i8, ptr %95, i64 %96
  %98 = load i64, ptr %6, align 8, !tbaa !19
  %99 = load i64, ptr %9, align 8, !tbaa !19
  %100 = sub i64 %98, %99
  call void @llvm.memcpy.p0.p0.i64(ptr align 1 %94, ptr align 1 %97, i64 %100, i1 false)
  call void @llvm.lifetime.end.p0(i64 8, ptr %9) #5
  call void @llvm.lifetime.end.p0(i64 4, ptr %8) #5
  call void @llvm.lifetime.end.p0(i64 4, ptr %7) #5
  ret void
}