; Function Attrs: nounwind uwtable
define dso_local void @PHP_HAVALUpdate(ptr noundef %0, ptr noundef %1, i64 noundef %2) #1 {
._crit_edge:
  %3 = getelementptr inbounds nuw i8, ptr %0, i64 32
  %4 = load i32, ptr %3, align 8, !tbaa !4
  %5 = lshr i32 %4, 3
  %6 = and i32 %5, 127
  %7 = trunc i64 %2 to i32
  %8 = shl i32 %7, 3
  %9 = add i32 %4, %8
  store i32 %9, ptr %3, align 8, !tbaa !4
  %10 = icmp ult i32 %9, %8
  %11 = getelementptr inbounds nuw i8, ptr %0, i64 36
  %12 = load i32, ptr %11, align 4, !tbaa !4
  %13 = zext i1 %10 to i32
  %14 = add i32 %12, %13
  %15 = lshr i64 %2, 29
  %16 = trunc i64 %15 to i32
  %17 = getelementptr inbounds nuw i8, ptr %0, i64 36
  %18 = add i32 %14, %16
  store i32 %18, ptr %17, align 4, !tbaa !4
  %19 = sub nuw nsw i32 128, %6
  %20 = zext nneg i32 %19 to i64
  %.not = icmp ult i64 %2, %20
  br i1 %.not, label %34, label %21

21:                                               ; preds = %._crit_edge
  %22 = getelementptr inbounds nuw i8, ptr %0, i64 40
  %23 = zext nneg i32 %6 to i64
  %24 = getelementptr inbounds nuw [128 x i8], ptr %22, i64 0, i64 %23
  tail call void @llvm.memcpy.p0.p0.i64(ptr noundef nonnull align 1 dereferenceable(1) %24, ptr noundef nonnull align 1 dereferenceable(1) %1, i64 %20, i1 false)
  %25 = getelementptr inbounds nuw i8, ptr %0, i64 176
  %26 = load ptr, ptr %25, align 8, !tbaa !13
  tail call void %26(ptr noundef nonnull %0, ptr noundef nonnull %22) #7
  %27 = add nuw nsw i64 %20, 127
  %28 = icmp ult i64 %27, %2
  br i1 %28, label %.lr.ph, label %.loopexit

.lr.ph:                                           ; preds = %21, %.lr.ph
  %.033 = phi i64 [ %31, %.lr.ph ], [ %20, %21 ]
  %29 = load ptr, ptr %25, align 8, !tbaa !13
  %30 = getelementptr inbounds nuw i8, ptr %1, i64 %.033
  tail call void %29(ptr noundef nonnull %0, ptr noundef nonnull %30) #7
  %31 = add i64 %.033, 128
  %32 = add i64 %.033, 255
  %33 = icmp ult i64 %32, %2
  br i1 %33, label %.lr.ph, label %.loopexit

34:                                               ; preds = %._crit_edge
  %35 = zext nneg i32 %6 to i64
  br label %.loopexit

.loopexit:                                        ; preds = %.lr.ph, %21, %34
  %.030 = phi i64 [ %35, %34 ], [ 0, %21 ], [ 0, %.lr.ph ]
  %.1 = phi i64 [ 0, %34 ], [ %20, %21 ], [ %31, %.lr.ph ]
  %36 = getelementptr inbounds nuw i8, ptr %0, i64 40
  %37 = getelementptr inbounds nuw [128 x i8], ptr %36, i64 0, i64 %.030
  %38 = getelementptr inbounds nuw i8, ptr %1, i64 %.1
  %39 = sub i64 %2, %.1
  tail call void @llvm.memcpy.p0.p0.i64(ptr nonnull align 1 %37, ptr align 1 %38, i64 %39, i1 false)
  ret void
}